target datalayout = "e-m:e-p270:32:32-p271:32:32-p272:64:64-i64:64-i128:128-f80:128-n8:16:32:64-S128"
target triple = "x86_64-pc-linux-gnu"

%struct._GtkTreeIter = type { i32, ptr, ptr, ptr }
%struct.display_data = type { i64, i32, ptr, i8, i32, ptr, ptr, ptr, ptr, ptr, ptr, ptr, ptr }
%struct.popup_info = type { ptr, ptr, i32, i32, ptr, ptr, ptr, %struct._GtkTreeIter, ptr, ptr, i32, i8, ptr, ptr, i32, ptr, ptr, i32, i32 }
%struct.specific_info = type { i32, i32, ptr, ptr, ptr }

@.str.8 = private unnamed_addr constant [19 x i8] c"button-press-event\00", align 1
@.str.9 = private unnamed_addr constant [21 x i8] c"button-release-event\00", align 1
@.str.10 = private unnamed_addr constant [8 x i8] c"toggled\00", align 1

; Function Attrs: nounwind uwtable
define dso_local void @make_fields_menu(ptr noundef %0, ptr noundef %1, ptr noundef %2, i32 noundef %3) #0 {
  %5 = alloca ptr, align 8
  %6 = alloca ptr, align 8
  %7 = alloca ptr, align 8
  %8 = alloca i32, align 4
  %9 = alloca ptr, align 8
  %10 = alloca ptr, align 8
  %11 = alloca i32, align 4
  %12 = alloca i32, align 4
  store ptr %0, ptr %5, align 8
  store ptr %1, ptr %6, align 8
  store ptr %2, ptr %7, align 8
  store i32 %3, ptr %8, align 4
  call void @llvm.lifetime.start.p0(i64 8, ptr %9) #11
  store ptr null, ptr %9, align 8
  call void @llvm.lifetime.start.p0(i64 8, ptr %10) #11
  %13 = load ptr, ptr %7, align 8
  store ptr %13, ptr %10, align 8
  call void @llvm.lifetime.start.p0(i64 4, ptr %11) #11
  store i32 0, ptr %11, align 4
  %14 = load ptr, ptr %5, align 8
  %15 = icmp ne ptr %14, null
  br i1 %15, label %16, label %24

16:                                               ; preds = %4
  %17 = load ptr, ptr %5, align 8
  %18 = getelementptr inbounds nuw %struct.popup_info, ptr %17, i32 0, i32 15
  %19 = load ptr, ptr %18, align 8
  %20 = getelementptr inbounds nuw %struct.specific_info, ptr %19, i32 0, i32 0
  %21 = load i32, ptr %20, align 8
  %22 = icmp eq i32 %21, 8
  br i1 %22, label %23, label %24

23:                                               ; preds = %16
  store i32 1, ptr %12, align 4
  br label %96

24:                                               ; preds = %16, %4
  %25 = load ptr, ptr %6, align 8
  %26 = call ptr @g_type_check_instance_cast(ptr noundef %25, i64 noundef 80)
  %27 = call i64 @g_signal_connect_data(ptr noundef %26, ptr noundef @.str.8, ptr noundef @_menu_button_pressed, ptr noundef null, ptr noundef null, i32 noundef 0)
  %28 = load ptr, ptr %6, align 8
  %29 = call ptr @g_type_check_instance_cast(ptr noundef %28, i64 noundef 80)
  %30 = call i64 @g_signal_connect_data(ptr noundef %29, ptr noundef @.str.9, ptr noundef @_menu_button_released, ptr noundef null, ptr noundef null, i32 noundef 0)
  store i32 0, ptr %11, align 4
  br label %31

31:                                               ; preds = %92, %24
  %32 = load i32, ptr %11, align 4
  %33 = load i32, ptr %8, align 4
  %34 = icmp slt i32 %32, %33
  br i1 %34, label %35, label %95

35:                                               ; preds = %31
  br label %36

36:                                               ; preds = %58, %51, %35
  %37 = load ptr, ptr %7, align 8
  %38 = getelementptr inbounds nuw %struct.display_data, ptr %37, i32 1
  store ptr %38, ptr %7, align 8
  %39 = icmp ne ptr %37, null
  br i1 %39, label %40, label %90

40:                                               ; preds = %36
  %41 = load ptr, ptr %7, align 8
  %42 = getelementptr inbounds nuw %struct.display_data, ptr %41, i32 0, i32 1
  %43 = load i32, ptr %42, align 8
  %44 = icmp eq i32 %43, -1
  br i1 %44, label %45, label %46

45:                                               ; preds = %40
  br label %90

46:                                               ; preds = %40
  %47 = load ptr, ptr %7, align 8
  %48 = getelementptr inbounds nuw %struct.display_data, ptr %47, i32 0, i32 2
  %49 = load ptr, ptr %48, align 8
  %50 = icmp ne ptr %49, null
  br i1 %50, label %52, label %51

51:                                               ; preds = %46
  br label %36, !llvm.loop !22

52:                                               ; preds = %46
  %53 = load ptr, ptr %7, align 8
  %54 = getelementptr inbounds nuw %struct.display_data, ptr %53, i32 0, i32 1
  %55 = load i32, ptr %54, align 8
  %56 = load i32, ptr %11, align 4
  %57 = icmp ne i32 %55, %56
  br i1 %57, label %58, label %59

58:                                               ; preds = %52
  br label %36, !llvm.loop !22

59:                                               ; preds = %52
  %60 = load ptr, ptr %7, align 8
  %61 = getelementptr inbounds nuw %struct.display_data, ptr %60, i32 0, i32 2
  %62 = load ptr, ptr %61, align 8
  %63 = call ptr @gtk_check_menu_item_new_with_label(ptr noundef %62)
  store ptr %63, ptr %9, align 8
  %64 = load ptr, ptr %9, align 8
  %65 = call i64 @gtk_check_menu_item_get_type() #12
  %66 = call ptr @g_type_check_instance_cast(ptr noundef %64, i64 noundef %65)
  %67 = load ptr, ptr %7, align 8
  %68 = getelementptr inbounds nuw %struct.display_data, ptr %67, i32 0, i32 3
  %69 = load i8, ptr %68, align 8, !range !23, !noundef !24
  %70 = trunc i8 %69 to i1
  %71 = zext i1 %70 to i32
  call void @gtk_check_menu_item_set_active(ptr noundef %66, i32 noundef %71)
  %72 = load ptr, ptr %5, align 8
  %73 = icmp ne ptr %72, null
  br i1 %73, label %74, label %81

74:                                               ; preds = %59
  %75 = load ptr, ptr %5, align 8
  %76 = load ptr, ptr %7, align 8
  %77 = getelementptr inbounds nuw %struct.display_data, ptr %76, i32 0, i32 11
  store ptr %75, ptr %77, align 8
  %78 = load ptr, ptr %9, align 8
  %79 = load ptr, ptr %7, align 8
  %80 = call i64 @g_signal_connect_data(ptr noundef %78, ptr noundef @.str.10, ptr noundef @_popup_state_changed, ptr noundef %79, ptr noundef null, i32 noundef 0)
  br label %85

81:                                               ; preds = %59
  %82 = load ptr, ptr %9, align 8
  %83 = load ptr, ptr %7, align 8
  %84 = call i64 @g_signal_connect_data(ptr noundef %82, ptr noundef @.str.10, ptr noundef @_toggle_state_changed, ptr noundef %83, ptr noundef null, i32 noundef 0)
  br label %85

85:                                               ; preds = %81, %74
  %86 = load ptr, ptr %6, align 8
  %87 = call i64 @gtk_menu_shell_get_type() #12
  %88 = call ptr @g_type_check_instance_cast(ptr noundef %86, i64 noundef %87)
  %89 = load ptr, ptr %9, align 8
  call void @gtk_menu_shell_append(ptr noundef %88, ptr noundef %89)
  br label %90

90:                                               ; preds = %85, %45, %36
  %91 = load ptr, ptr %10, align 8
  store ptr %91, ptr %7, align 8
  br label %92

92:                                               ; preds = %90
  %93 = load i32, ptr %11, align 4
  %94 = add nsw i32 %93, 1
  store i32 %94, ptr %11, align 4
  br label %31, !llvm.loop !25

95:                                               ; preds = %31
  store i32 0, ptr %12, align 4
  br label %96

96:                                               ; preds = %95, %23
  call void @llvm.lifetime.end.p0(i64 4, ptr %11) #11
  call void @llvm.lifetime.end.p0(i64 8, ptr %10) #11
  call void @llvm.lifetime.end.p0(i64 8, ptr %9) #11
  %97 = load i32, ptr %12, align 4
  switch i32 %97, label %99 [
    i32 0, label %98
    i32 1, label %98
  ]

98:                                               ; preds = %96, %96
  ret void

99:                                               ; preds = %96
  unreachable
}