; Function Attrs: nounwind uwtable
define dso_local void @make_fields_menu(ptr noundef %0, ptr noundef %1, ptr noundef %2, i32 noundef %3) local_unnamed_addr #2 {
  %.not = icmp eq ptr %0, null
  br i1 %.not, label %10, label %5

5:                                                ; preds = %4
  %6 = getelementptr inbounds nuw i8, ptr %0, i64 128
  %7 = load ptr, ptr %6, align 8
  %8 = load i32, ptr %7, align 8
  %9 = icmp eq i32 %8, 8
  br i1 %9, label %.loopexit33, label %10

10:                                               ; preds = %5, %4
  %11 = tail call ptr @g_type_check_instance_cast(ptr noundef %1, i64 noundef 80) #16
  %12 = tail call i64 @g_signal_connect_data(ptr noundef %11, ptr noundef nonnull @.str.8, ptr noundef nonnull @_menu_button_pressed, ptr noundef null, ptr noundef null, i32 noundef 0) #16
  %13 = tail call ptr @g_type_check_instance_cast(ptr noundef %1, i64 noundef 80) #16
  %14 = tail call i64 @g_signal_connect_data(ptr noundef %13, ptr noundef nonnull @.str.9, ptr noundef nonnull @_menu_button_released, ptr noundef null, ptr noundef null, i32 noundef 0) #16
  %15 = icmp sgt i32 %3, 0
  br i1 %15, label %.preheader.lr.ph, label %.loopexit33

.preheader.lr.ph:                                 ; preds = %10
  br i1 %.not, label %.preheader.us, label %.preheader

.preheader.us:                                    ; preds = %.preheader.lr.ph, %.loopexit.us
  %.037.us = phi i32 [ %35, %.loopexit.us ], [ 0, %.preheader.lr.ph ]
  br label %16

16:                                               ; preds = %22, %.preheader.us
  %.1.us = phi ptr [ %17, %22 ], [ %2, %.preheader.us ]
  %17 = getelementptr inbounds nuw i8, ptr %.1.us, i64 96
  %.not30.us = icmp eq ptr %.1.us, null
  br i1 %.not30.us, label %.loopexit.us, label %18

18:                                               ; preds = %16
  %19 = getelementptr inbounds nuw i8, ptr %.1.us, i64 104
  %20 = load i32, ptr %19, align 8
  %21 = icmp eq i32 %20, -1
  br i1 %21, label %.loopexit.us, label %22

22:                                               ; preds = %18
  %23 = getelementptr inbounds nuw i8, ptr %.1.us, i64 112
  %24 = load ptr, ptr %23, align 8
  %.not31.us = icmp ne ptr %24, null
  %.not32.us = icmp eq i32 %20, %.037.us
  %or.cond.us = and i1 %.not32.us, %.not31.us
  br i1 %or.cond.us, label %25, label %16, !llvm.loop !20

25:                                               ; preds = %22
  %26 = tail call ptr @gtk_check_menu_item_new_with_label(ptr noundef nonnull %24) #16
  %27 = tail call i64 @gtk_check_menu_item_get_type() #17
  %28 = tail call ptr @g_type_check_instance_cast(ptr noundef %26, i64 noundef %27) #16
  %29 = getelementptr inbounds nuw i8, ptr %.1.us, i64 120
  %30 = load i8, ptr %29, align 8, !range !21, !noundef !22
  %31 = zext nneg i8 %30 to i32
  tail call void @gtk_check_menu_item_set_active(ptr noundef %28, i32 noundef %31) #16
  %32 = tail call i64 @g_signal_connect_data(ptr noundef %26, ptr noundef nonnull @.str.10, ptr noundef nonnull @_toggle_state_changed, ptr noundef nonnull %17, ptr noundef null, i32 noundef 0) #16
  %33 = tail call i64 @gtk_menu_shell_get_type() #17
  %34 = tail call ptr @g_type_check_instance_cast(ptr noundef %1, i64 noundef %33) #16
  tail call void @gtk_menu_shell_append(ptr noundef %34, ptr noundef %26) #16
  br label %.loopexit.us

.loopexit.us:                                     ; preds = %16, %18, %25
  %35 = add nuw nsw i32 %.037.us, 1
  %exitcond46.not = icmp eq i32 %35, %3
  br i1 %exitcond46.not, label %.loopexit33, label %.preheader.us, !llvm.loop !23

.preheader:                                       ; preds = %.preheader.lr.ph, %.loopexit
  %.037 = phi i32 [ %56, %.loopexit ], [ 0, %.preheader.lr.ph ]
  br label %36

36:                                               ; preds = %.preheader, %42
  %.1 = phi ptr [ %37, %42 ], [ %2, %.preheader ]
  %37 = getelementptr inbounds nuw i8, ptr %.1, i64 96
  %.not30 = icmp eq ptr %.1, null
  br i1 %.not30, label %.loopexit, label %38

38:                                               ; preds = %36
  %39 = getelementptr inbounds nuw i8, ptr %.1, i64 104
  %40 = load i32, ptr %39, align 8
  %41 = icmp eq i32 %40, -1
  br i1 %41, label %.loopexit, label %42

42:                                               ; preds = %38
  %43 = getelementptr inbounds nuw i8, ptr %.1, i64 112
  %44 = load ptr, ptr %43, align 8
  %.not31 = icmp ne ptr %44, null
  %.not32 = icmp eq i32 %40, %.037
  %or.cond = and i1 %.not32, %.not31
  br i1 %or.cond, label %45, label %36, !llvm.loop !20

45:                                               ; preds = %42
  %46 = tail call ptr @gtk_check_menu_item_new_with_label(ptr noundef nonnull %44) #16
  %47 = tail call i64 @gtk_check_menu_item_get_type() #17
  %48 = tail call ptr @g_type_check_instance_cast(ptr noundef %46, i64 noundef %47) #16
  %49 = getelementptr inbounds nuw i8, ptr %.1, i64 120
  %50 = load i8, ptr %49, align 8, !range !21, !noundef !22
  %51 = zext nneg i8 %50 to i32
  tail call void @gtk_check_menu_item_set_active(ptr noundef %48, i32 noundef %51) #16
  %52 = getelementptr inbounds nuw i8, ptr %.1, i64 176
  store ptr %0, ptr %52, align 8
  %53 = tail call i64 @g_signal_connect_data(ptr noundef %46, ptr noundef nonnull @.str.10, ptr noundef nonnull @_popup_state_changed, ptr noundef nonnull %37, ptr noundef null, i32 noundef 0) #16
  %54 = tail call i64 @gtk_menu_shell_get_type() #17
  %55 = tail call ptr @g_type_check_instance_cast(ptr noundef %1, i64 noundef %54) #16
  tail call void @gtk_menu_shell_append(ptr noundef %55, ptr noundef %46) #16
  br label %.loopexit

.loopexit:                                        ; preds = %38, %36, %45
  %56 = add nuw nsw i32 %.037, 1
  %exitcond.not = icmp eq i32 %56, %3
  br i1 %exitcond.not, label %.loopexit33, label %.preheader, !llvm.loop !23

.loopexit33:                                      ; preds = %.loopexit, %.loopexit.us, %10, %5
  ret void
}